; Function Attrs: mustprogress uwtable
define hidden noundef i32 @_Z17StringToBlendFuncRKNSt7__cxx1112basic_stringIcSt11char_traitsIcESaIcEEE(ptr noundef nonnull align 8 dereferenceable(32) %m) local_unnamed_addr #0 {
entry:
  %call.i = tail call noundef i32 @_ZNKSt7__cxx1112basic_stringIcSt11char_traitsIcESaIcEE7compareEPKc(ptr noundef nonnull align 8 dereferenceable(32) %m, ptr noundef nonnull @.str) #17
  %cmp.i = icmp eq i32 %call.i, 0
  br i1 %cmp.i, label %return, label %if.end

if.end:                                           ; preds = %entry
  %call.i6 = tail call noundef i32 @_ZNKSt7__cxx1112basic_stringIcSt11char_traitsIcESaIcEE7compareEPKc(ptr noundef nonnull align 8 dereferenceable(32) %m, ptr noundef nonnull @.str.1) #17
  %cmp.i7 = icmp eq i32 %call.i6, 0
  br i1 %cmp.i7, label %return, label %if.end3

if.end3:                                          ; preds = %if.end
  %call.i8 = tail call noundef i32 @_ZNKSt7__cxx1112basic_stringIcSt11char_traitsIcESaIcEE7compareEPKc(ptr noundef nonnull align 8 dereferenceable(32) %m, ptr noundef nonnull @.str.2) #17
  %cmp.i9 = icmp eq i32 %call.i8, 0
  br i1 %cmp.i9, label %return, label %if.end6

if.end6:                                          ; preds = %if.end3
  %call.i10 = tail call noundef i32 @_ZNKSt7__cxx1112basic_stringIcSt11char_traitsIcESaIcEE7compareEPKc(ptr noundef nonnull align 8 dereferenceable(32) %m, ptr noundef nonnull @.str.3) #17
  %cmp.i11 = icmp eq i32 %call.i10, 0
  br i1 %cmp.i11, label %return, label %if.end9

if.end9:                                          ; preds = %if.end6
  %call.i12 = tail call noundef i32 @_ZNKSt7__cxx1112basic_stringIcSt11char_traitsIcESaIcEE7compareEPKc(ptr noundef nonnull align 8 dereferenceable(32) %m, ptr noundef nonnull @.str.4) #17
  %cmp.i13 = icmp eq i32 %call.i12, 0
  br i1 %cmp.i13, label %return, label %if.end12

if.end12:                                         ; preds = %if.end9
  %call13 = tail call noundef ptr @_ZN6Assimp13DefaultLogger3getEv()
  tail call void @_ZN6Assimp6Logger5errorIJRA35_KcRKNSt7__cxx1112basic_stringIcSt11char_traitsIcESaIcEEEEEEvDpOT_(ptr noundef nonnull align 8 dereferenceable(12) %call13, ptr noundef nonnull align 1 dereferenceable(35) @.str.5, ptr noundef nonnull align 8 dereferenceable(32) %m)
  br label %return

return:                                           ; preds = %if.end9, %if.end6, %if.end3, %if.end, %entry, %if.end12
  %retval.0 = phi i32 [ 0, %if.end12 ], [ 1, %entry ], [ 2, %if.end ], [ 5, %if.end3 ], [ 6, %if.end6 ], [ 4, %if.end9 ]
  ret i32 %retval.0
}